target datalayout = "e-m:e-p270:32:32-p271:32:32-p272:64:64-i64:64-i128:128-f80:128-n8:16:32:64-S128"
target triple = "x86_64-pc-linux-gnu"

%struct.png_struct_def = type { [1 x %struct.__jmp_buf_tag], ptr, ptr, i64, ptr, ptr, ptr, ptr, ptr, ptr, ptr, ptr, ptr, i8, i8, i32, i32, i32, i32, %struct.z_stream_s, ptr, i32, i32, i32, i32, i32, i32, i32, i32, i32, i32, i32, i32, i32, i32, i32, i32, i32, i32, i32, i32, i64, i32, i32, i32, ptr, ptr, ptr, ptr, i64, i32, i32, ptr, i16, i32, i16, i8, i8, i8, i8, i8, i8, i8, i8, i8, i8, i8, i8, i8, i8, i8, i16, i8, i32, %struct.png_color_16_struct, %struct.png_color_16_struct, ptr, i32, i32, i32, i32, ptr, ptr, ptr, ptr, ptr, ptr, %struct.png_color_8_struct, %struct.png_color_8_struct, ptr, %struct.png_color_16_struct, ptr, ptr, ptr, ptr, ptr, ptr, ptr, ptr, ptr, i32, i32, i64, i64, i64, i64, i32, i32, ptr, ptr, i32, [29 x i8], i32, ptr, ptr, i32, i32, ptr, i8, i8, i16, i16, ptr, i32, i8, ptr, ptr, ptr, ptr, ptr, ptr, ptr, i8, i32, i32, i32, i64, %struct.png_unknown_chunk_t, i64, ptr, i64, i32, i32, ptr, [4 x ptr], %struct.png_colorspace }
%struct.__jmp_buf_tag = type { [8 x i64], i32, %struct.__sigset_t }
%struct.__sigset_t = type { [16 x i64] }
%struct.z_stream_s = type { ptr, i32, i64, ptr, i32, i64, ptr, ptr, ptr, ptr, ptr, i32, i64, i64 }
%struct.png_color_8_struct = type { i8, i8, i8, i8, i8 }
%struct.png_color_16_struct = type { i8, i16, i16, i16, i16 }
%struct.png_unknown_chunk_t = type { [5 x i8], ptr, i64, i8 }
%struct.png_colorspace = type { i32, %struct.png_xy, %struct.png_XYZ, i16, i16 }
%struct.png_xy = type { i32, i32, i32, i32, i32, i32, i32, i32 }
%struct.png_XYZ = type { i32, i32, i32, i32, i32, i32, i32, i32, i32 }

@.str.7 = private unnamed_addr constant [34 x i8] c"Potential overflow of save_buffer\00", align 1
@.str.8 = private unnamed_addr constant [36 x i8] c"Insufficient memory for save_buffer\00", align 1
@.str.9 = private unnamed_addr constant [18 x i8] c"save_buffer error\00", align 1

; Function Attrs: nounwind uwtable
define void @png_push_save_buffer(ptr noalias noundef %0) #0 {
  %2 = alloca ptr, align 8
  %3 = alloca i64, align 8
  %4 = alloca i64, align 8
  %5 = alloca ptr, align 8
  %6 = alloca ptr, align 8
  %7 = alloca i64, align 8
  %8 = alloca ptr, align 8
  store ptr %0, ptr %2, align 8
  %9 = load ptr, ptr %2, align 8
  %10 = getelementptr inbounds %struct.png_struct_def, ptr %9, i32 0, i32 102
  %11 = load i64, ptr %10, align 8
  %12 = icmp ne i64 %11, 0
  br i1 %12, label %13, label %48

13:                                               ; preds = %1
  %14 = load ptr, ptr %2, align 8
  %15 = getelementptr inbounds %struct.png_struct_def, ptr %14, i32 0, i32 96
  %16 = load ptr, ptr %15, align 8
  %17 = load ptr, ptr %2, align 8
  %18 = getelementptr inbounds %struct.png_struct_def, ptr %17, i32 0, i32 97
  %19 = load ptr, ptr %18, align 8
  %20 = icmp ne ptr %16, %19
  br i1 %20, label %21, label %47

21:                                               ; preds = %13
  %22 = load ptr, ptr %2, align 8
  %23 = getelementptr inbounds %struct.png_struct_def, ptr %22, i32 0, i32 102
  %24 = load i64, ptr %23, align 8
  store i64 %24, ptr %4, align 8
  store i64 0, ptr %3, align 8
  %25 = load ptr, ptr %2, align 8
  %26 = getelementptr inbounds %struct.png_struct_def, ptr %25, i32 0, i32 96
  %27 = load ptr, ptr %26, align 8
  store ptr %27, ptr %5, align 8
  %28 = load ptr, ptr %2, align 8
  %29 = getelementptr inbounds %struct.png_struct_def, ptr %28, i32 0, i32 97
  %30 = load ptr, ptr %29, align 8
  store ptr %30, ptr %6, align 8
  br label %31

31:                                               ; preds = %39, %21
  %32 = load i64, ptr %3, align 8
  %33 = load i64, ptr %4, align 8
  %34 = icmp ult i64 %32, %33
  br i1 %34, label %35, label %46

35:                                               ; preds = %31
  %36 = load ptr, ptr %5, align 8
  %37 = load i8, ptr %36, align 1
  %38 = load ptr, ptr %6, align 8
  store i8 %37, ptr %38, align 1
  br label %39

39:                                               ; preds = %35
  %40 = load i64, ptr %3, align 8
  %41 = add i64 %40, 1
  store i64 %41, ptr %3, align 8
  %42 = load ptr, ptr %5, align 8
  %43 = getelementptr inbounds i8, ptr %42, i32 1
  store ptr %43, ptr %5, align 8
  %44 = load ptr, ptr %6, align 8
  %45 = getelementptr inbounds i8, ptr %44, i32 1
  store ptr %45, ptr %6, align 8
  br label %31, !llvm.loop !6

46:                                               ; preds = %31
  br label %47

47:                                               ; preds = %46, %13
  br label %48

48:                                               ; preds = %47, %1
  %49 = load ptr, ptr %2, align 8
  %50 = getelementptr inbounds %struct.png_struct_def, ptr %49, i32 0, i32 102
  %51 = load i64, ptr %50, align 8
  %52 = load ptr, ptr %2, align 8
  %53 = getelementptr inbounds %struct.png_struct_def, ptr %52, i32 0, i32 105
  %54 = load i64, ptr %53, align 8
  %55 = add i64 %51, %54
  %56 = load ptr, ptr %2, align 8
  %57 = getelementptr inbounds %struct.png_struct_def, ptr %56, i32 0, i32 103
  %58 = load i64, ptr %57, align 8
  %59 = icmp ugt i64 %55, %58
  br i1 %59, label %60, label %122

60:                                               ; preds = %48
  %61 = load ptr, ptr %2, align 8
  %62 = getelementptr inbounds %struct.png_struct_def, ptr %61, i32 0, i32 102
  %63 = load i64, ptr %62, align 8
  %64 = load ptr, ptr %2, align 8
  %65 = getelementptr inbounds %struct.png_struct_def, ptr %64, i32 0, i32 105
  %66 = load i64, ptr %65, align 8
  %67 = add i64 %66, 256
  %68 = sub i64 -1, %67
  %69 = icmp ugt i64 %63, %68
  br i1 %69, label %70, label %72

70:                                               ; preds = %60
  %71 = load ptr, ptr %2, align 8
  call void @png_error(ptr noundef %71, ptr noundef @.str.7) #5
  unreachable

72:                                               ; preds = %60
  %73 = load ptr, ptr %2, align 8
  %74 = getelementptr inbounds %struct.png_struct_def, ptr %73, i32 0, i32 102
  %75 = load i64, ptr %74, align 8
  %76 = load ptr, ptr %2, align 8
  %77 = getelementptr inbounds %struct.png_struct_def, ptr %76, i32 0, i32 105
  %78 = load i64, ptr %77, align 8
  %79 = add i64 %75, %78
  %80 = add i64 %79, 256
  store i64 %80, ptr %7, align 8
  %81 = load ptr, ptr %2, align 8
  %82 = getelementptr inbounds %struct.png_struct_def, ptr %81, i32 0, i32 97
  %83 = load ptr, ptr %82, align 8
  store ptr %83, ptr %8, align 8
  %84 = load ptr, ptr %2, align 8
  %85 = load i64, ptr %7, align 8
  %86 = call noalias ptr @png_malloc_warn(ptr noundef %84, i64 noundef %85)
  %87 = load ptr, ptr %2, align 8
  %88 = getelementptr inbounds %struct.png_struct_def, ptr %87, i32 0, i32 97
  store ptr %86, ptr %88, align 8
  %89 = load ptr, ptr %2, align 8
  %90 = getelementptr inbounds %struct.png_struct_def, ptr %89, i32 0, i32 97
  %91 = load ptr, ptr %90, align 8
  %92 = icmp eq ptr %91, null
  br i1 %92, label %93, label %97

93:                                               ; preds = %72
  %94 = load ptr, ptr %2, align 8
  %95 = load ptr, ptr %8, align 8
  call void @png_free(ptr noundef %94, ptr noundef %95)
  %96 = load ptr, ptr %2, align 8
  call void @png_error(ptr noundef %96, ptr noundef @.str.8) #5
  unreachable

97:                                               ; preds = %72
  %98 = load ptr, ptr %8, align 8
  %99 = icmp ne ptr %98, null
  br i1 %99, label %100, label %108

100:                                              ; preds = %97
  %101 = load ptr, ptr %2, align 8
  %102 = getelementptr inbounds %struct.png_struct_def, ptr %101, i32 0, i32 97
  %103 = load ptr, ptr %102, align 8
  %104 = load ptr, ptr %8, align 8
  %105 = load ptr, ptr %2, align 8
  %106 = getelementptr inbounds %struct.png_struct_def, ptr %105, i32 0, i32 102
  %107 = load i64, ptr %106, align 8
  call void @llvm.memcpy.p0.p0.i64(ptr align 1 %103, ptr align 1 %104, i64 %107, i1 false)
  br label %116

108:                                              ; preds = %97
  %109 = load ptr, ptr %2, align 8
  %110 = getelementptr inbounds %struct.png_struct_def, ptr %109, i32 0, i32 102
  %111 = load i64, ptr %110, align 8
  %112 = icmp ne i64 %111, 0
  br i1 %112, label %113, label %115

113:                                              ; preds = %108
  %114 = load ptr, ptr %2, align 8
  call void @png_error(ptr noundef %114, ptr noundef @.str.9) #5
  unreachable

115:                                              ; preds = %108
  br label %116

116:                                              ; preds = %115, %100
  %117 = load ptr, ptr %2, align 8
  %118 = load ptr, ptr %8, align 8
  call void @png_free(ptr noundef %117, ptr noundef %118)
  %119 = load i64, ptr %7, align 8
  %120 = load ptr, ptr %2, align 8
  %121 = getelementptr inbounds %struct.png_struct_def, ptr %120, i32 0, i32 103
  store i64 %119, ptr %121, align 8
  br label %122

122:                                              ; preds = %116, %48
  %123 = load ptr, ptr %2, align 8
  %124 = getelementptr inbounds %struct.png_struct_def, ptr %123, i32 0, i32 105
  %125 = load i64, ptr %124, align 8
  %126 = icmp ne i64 %125, 0
  br i1 %126, label %127, label %150

127:                                              ; preds = %122
  %128 = load ptr, ptr %2, align 8
  %129 = getelementptr inbounds %struct.png_struct_def, ptr %128, i32 0, i32 97
  %130 = load ptr, ptr %129, align 8
  %131 = load ptr, ptr %2, align 8
  %132 = getelementptr inbounds %struct.png_struct_def, ptr %131, i32 0, i32 102
  %133 = load i64, ptr %132, align 8
  %134 = getelementptr inbounds i8, ptr %130, i64 %133
  %135 = load ptr, ptr %2, align 8
  %136 = getelementptr inbounds %struct.png_struct_def, ptr %135, i32 0, i32 98
  %137 = load ptr, ptr %136, align 8
  %138 = load ptr, ptr %2, align 8
  %139 = getelementptr inbounds %struct.png_struct_def, ptr %138, i32 0, i32 105
  %140 = load i64, ptr %139, align 8
  call void @llvm.memcpy.p0.p0.i64(ptr align 1 %134, ptr align 1 %137, i64 %140, i1 false)
  %141 = load ptr, ptr %2, align 8
  %142 = getelementptr inbounds %struct.png_struct_def, ptr %141, i32 0, i32 105
  %143 = load i64, ptr %142, align 8
  %144 = load ptr, ptr %2, align 8
  %145 = getelementptr inbounds %struct.png_struct_def, ptr %144, i32 0, i32 102
  %146 = load i64, ptr %145, align 8
  %147 = add i64 %146, %143
  store i64 %147, ptr %145, align 8
  %148 = load ptr, ptr %2, align 8
  %149 = getelementptr inbounds %struct.png_struct_def, ptr %148, i32 0, i32 105
  store i64 0, ptr %149, align 8
  br label %150

150:                                              ; preds = %127, %122
  %151 = load ptr, ptr %2, align 8
  %152 = getelementptr inbounds %struct.png_struct_def, ptr %151, i32 0, i32 97
  %153 = load ptr, ptr %152, align 8
  %154 = load ptr, ptr %2, align 8
  %155 = getelementptr inbounds %struct.png_struct_def, ptr %154, i32 0, i32 96
  store ptr %153, ptr %155, align 8
  %156 = load ptr, ptr %2, align 8
  %157 = getelementptr inbounds %struct.png_struct_def, ptr %156, i32 0, i32 104
  store i64 0, ptr %157, align 8
  ret void
}