; Function Attrs: nounwind uwtable
define void @png_push_save_buffer(ptr noalias noundef %0) local_unnamed_addr #0 {
  %2 = getelementptr inbounds i8, ptr %0, i64 848
  %3 = load i64, ptr %2, align 8
  %.not = icmp eq i64 %3, 0
  br i1 %.not, label %.loopexit, label %4

4:                                                ; preds = %1
  %5 = getelementptr inbounds i8, ptr %0, i64 808
  %6 = load ptr, ptr %5, align 8
  %7 = getelementptr inbounds i8, ptr %0, i64 816
  %8 = load ptr, ptr %7, align 8
  %.not58 = icmp eq ptr %6, %8
  br i1 %.not58, label %.loopexit, label %.preheader

.preheader:                                       ; preds = %4, %.preheader
  %.064 = phi i64 [ %10, %.preheader ], [ 0, %4 ]
  %.04963 = phi ptr [ %11, %.preheader ], [ %6, %4 ]
  %.05062 = phi ptr [ %12, %.preheader ], [ %8, %4 ]
  %9 = load i8, ptr %.04963, align 1
  store i8 %9, ptr %.05062, align 1
  %10 = add nuw i64 %.064, 1
  %11 = getelementptr inbounds i8, ptr %.04963, i64 1
  %12 = getelementptr inbounds i8, ptr %.05062, i64 1
  %exitcond.not = icmp eq i64 %10, %3
  br i1 %exitcond.not, label %.loopexit, label %.preheader, !llvm.loop !14

.loopexit:                                        ; preds = %.preheader, %4, %1
  %13 = getelementptr inbounds i8, ptr %0, i64 872
  %14 = load i64, ptr %13, align 8
  %15 = add i64 %14, %3
  %16 = getelementptr inbounds i8, ptr %0, i64 856
  %17 = load i64, ptr %16, align 8
  %18 = icmp ugt i64 %15, %17
  br i1 %18, label %19, label %36

19:                                               ; preds = %.loopexit
  %20 = sub i64 -257, %14
  %21 = icmp ugt i64 %3, %20
  br i1 %21, label %22, label %23

22:                                               ; preds = %19
  tail call void @png_error(ptr noundef nonnull %0, ptr noundef nonnull @.str.7) #10
  unreachable

23:                                               ; preds = %19
  %24 = add i64 %15, 256
  %25 = getelementptr inbounds i8, ptr %0, i64 816
  %26 = load ptr, ptr %25, align 8
  %27 = tail call noalias ptr @png_malloc_warn(ptr noundef nonnull %0, i64 noundef %24) #11
  store ptr %27, ptr %25, align 8
  %28 = icmp eq ptr %27, null
  br i1 %28, label %29, label %30

29:                                               ; preds = %23
  tail call void @png_free(ptr noundef nonnull %0, ptr noundef %26) #11
  tail call void @png_error(ptr noundef nonnull %0, ptr noundef nonnull @.str.8) #10
  unreachable

30:                                               ; preds = %23
  %.not59 = icmp eq ptr %26, null
  %31 = load i64, ptr %2, align 8
  br i1 %.not59, label %33, label %32

32:                                               ; preds = %30
  tail call void @llvm.memcpy.p0.p0.i64(ptr nonnull align 1 %27, ptr nonnull align 1 %26, i64 %31, i1 false)
  br label %35

33:                                               ; preds = %30
  %.not60 = icmp eq i64 %31, 0
  br i1 %.not60, label %35, label %34

34:                                               ; preds = %33
  tail call void @png_error(ptr noundef nonnull %0, ptr noundef nonnull @.str.9) #10
  unreachable

35:                                               ; preds = %33, %32
  tail call void @png_free(ptr noundef nonnull %0, ptr noundef %26) #11
  store i64 %24, ptr %16, align 8
  %.pr = load i64, ptr %13, align 8
  br label %36

36:                                               ; preds = %35, %.loopexit
  %37 = phi i64 [ %.pr, %35 ], [ %14, %.loopexit ]
  %.not61 = icmp eq i64 %37, 0
  br i1 %.not61, label %48, label %38

38:                                               ; preds = %36
  %39 = getelementptr inbounds i8, ptr %0, i64 816
  %40 = load ptr, ptr %39, align 8
  %41 = load i64, ptr %2, align 8
  %42 = getelementptr inbounds i8, ptr %40, i64 %41
  %43 = getelementptr inbounds i8, ptr %0, i64 824
  %44 = load ptr, ptr %43, align 8
  tail call void @llvm.memcpy.p0.p0.i64(ptr align 1 %42, ptr align 1 %44, i64 %37, i1 false)
  %45 = load i64, ptr %13, align 8
  %46 = load i64, ptr %2, align 8
  %47 = add i64 %46, %45
  store i64 %47, ptr %2, align 8
  store i64 0, ptr %13, align 8
  br label %48

48:                                               ; preds = %38, %36
  %49 = getelementptr inbounds i8, ptr %0, i64 816
  %50 = load ptr, ptr %49, align 8
  %51 = getelementptr inbounds i8, ptr %0, i64 808
  store ptr %50, ptr %51, align 8
  %52 = getelementptr inbounds i8, ptr %0, i64 864
  store i64 0, ptr %52, align 8
  ret void
}